(dp0
S'1'
p1
(dp2
S'unimaginative'
p3
F0.0014240054404589396
sS'all'
p4
F0.0011192562167214402
sS'japan'
p5
F0.0010080272457219754
sS'forget'
p6
F0.0013160115176681635
sS'remarkable'
p7
F0.0010675930434626154
sS'ali'
p8
F0.00085520083776001725
sS'dance'
p9
F0.0013685160397171126
sS'skip'
p10
F0.0014773096904190479
sS'foul'
p11
F0.00085125956324356435
sS'ala'
p12
F0.0013505877742613429
sS'known'
p13
F0.0012741786487510426
sS'skin'
p14
F0.0012366148987931732
sS'go'
p15
F0.0014005930163202183
sS'sci'
p16
F0.00078645881886840806
sS'displaying'
p17
F0.0013642893105974023
sS'poorly'
p18
F0.0010510458603864908
sS'certainly'
p19
F0.00094586714496378748
sS'buddy'
p20
F0.00091190510033263366
sS'itll'
p21
F0.00089735938247221712
sS'leguizamos'
p22
F0.0013811331187979549
sS'to'
p23
F0.00090829856884148258
sS'finally'
p24
F0.0012754076030512523
sS'under'
p25
F0.00089359215197312399
sS'sorry'
p26
F0.0010836439289497949
sS'women'
p27
F0.0013761250843025807
sS'worth'
p28
F0.00090705858682167868
sS'sniper'
p29
F0.00076029438155912675
sS'woman'
p30
F0.0008114230557927809
sS'saying'
p31
F0.0009039031108012259
sS'worse'
p32
F0.001324632286540109
sS'without'
p33
F0.0011803992571941576
sS'very'
p34
F0.00097166639642934014
sS'translations'
p35
F0.0011068134364089664
sS'sellers'
p36
F0.0010579151537777897
sS'smack'
p37
F0.001249882772359154
sS'klaus'
p38
F0.0015086794613169872
sS'every'
p39
F0.0010863705540696115
sS'suspenseful'
p40
F0.00094857755505213732
sS'decide'
p41
F0.0010217824874825629
sS'awful'
p42
F0.00099262817497721215
sS'word'
p43
F0.00091123506018955173
sS'hamlet'
p44
F0.0013706847727985201
sS'courageous'
p45
F0.0014462098975816528
sS'minute'
p46
F0.0012809958760465286
sS'cool'
p47
F0.00076246251206297643
sS'heaven'
p48
F0.001145196499378321
sS'impressive'
p49
F0.0012087414279887544
sS'level'
p50
F0.0010419846430241169
sS'did'
p51
F0.0014985847032883191
sS'list'
p52
F0.00089681671626149796
sS'relentlessly'
p53
F0.00098522074343844013
sS'try'
p54
F0.0014665392599114595
sS'havent'
p55
F0.0013826174108926758
sS'shows'
p56
F0.0012134103796042196
sS'inconsistent'
p57
F0.0011016711976672218
sS'enjoy'
p58
F0.0012793226048586131
sS'ten'
p59
F0.0011277163315497466
sS'kinski'
p60
F0.00085006117600336297
sS'sloppy'
p61
F0.001502460255185051
sS'japanese'
p62
F0.001098429373764796
sS'past'
p63
F0.0013736990950744259
sS'intricate'
p64
F0.0011450059977007221
sS'erotic'
p65
F0.0013753460541222177
sS'video'
p66
F0.0008368947091573223
sS'stills'
p67
F0.0014607765443215117
sS'pass'
p68
F0.0012469460513140781
sS'subspecies'
p69
F0.0013872144088246268
sS'makers'
p70
F0.0010747822364326539
sS'even'
p71
F0.0014850095638186068
sS'what'
p72
F0.0011578897194765927
sS'plays'
p73
F0.0011285560975995974
sS'nana'
p74
F0.0014157032444016748
sS'hate'
p75
F0.0010423416937957375
sS'vampire'
p76
F0.00090439184476926067
sS'emotions'
p77
F0.0011863839313723554
sS'find'
p78
F0.00093495987030513164
sS'portrays'
p79
F0.0010083809135015345
sS'summers'
p80
F0.0014833251928232213
sS'version'
p81
F0.00079611188200840366
sS't'
p82
F0.0013894315559944289
sS'obvious'
p83
F0.0013745533640648411
sS'nicholas'
p84
F0.0014779300981758166
sS'ever'
p85
F0.0010416659449257468
sS'scripted'
p86
F0.0012193006892625849
sS'vonneguts'
p87
F0.00076229851342678157
sS'full'
p88
F0.0007831633641150038
sS'hero'
p89
F0.0011849293865737326
sS'mad'
p90
F0.0014492769906074704
sS'hoppors'
p91
F0.0010683610349663823
sS'men'
p92
F0.0014674219064697881
sS'handyman'
p93
F0.00088971130433518461
sS'french'
p94
F0.0013683231074104625
sS'tighter'
p95
F0.00079915831825797044
sS'wild'
p96
F0.0012627978595204457
sS'baseball'
p97
F0.0010149462184569841
sS'sing'
p98
F0.00099037973561825142
sS'along'
p99
F0.0015049154625811935
sS'change'
p100
F0.0010431503535874565
sS'rings'
p101
F0.0014933812437809954
sS'hbo'
p102
F0.0011491850982289424
sS'talent'
p103
F0.00079065875125789256
sS'redemption'
p104
F0.0010384686756965704
sS'brilliant'
p105
F0.0013561405026713837
sS'my'
p106
F0.0011035138046470063
sS'k'
p107
F0.00096193041889481776
sS'unwatchable'
p108
F0.0013460450862579469
sS'olivier'
p109
F0.0014129297093618371
sS'real'
p110
F0.0013833181402360781
sS'changes'
p111
F0.0010648455139533853
sS'thats'
p112
F0.0013299990531129801
sS'fantastic'
p113
F0.0011223827956484008
sS'love'
p114
F0.00083279398765629265
sS'ive'
p115
F0.001452134778195511
sS'busey'
p116
F0.0014963553905950428
sS'private'
p117
F0.0015037322961114813
sS'highly'
p118
F0.00092634127315903262
sS'improbable'
p119
F0.0014689623517996743
sS'guests'
p120
F0.0013292637315828588
sS'suicides'
p121
F0.0011755204457384292
sS'should'
p122
F0.001415383949265734
sS'singing'
p123
F0.00078453789608708905
sS'career'
p124
F0.0011593863055752694
sS'plot'
p125
F0.0013301417360394466
sS'from'
p126
F0.0012671161923271791
sS'vivid'
p127
F0.0012544044544837167
sS'sharper'
p128
F0.0013442037411677957
sS'connery'
p129
F0.00085280325565874077
sS'indians'
p130
F0.0011663283680698087
sS'dude'
p131
F0.0013059591197358484
sS'two'
p132
F0.0012809666685123496
sS'few'
p133
F0.0011939713029325385
sS'doubt'
p134
F0.00094547473111849514
sS'music'
p135
F0.0014186129715012621
sS'recommend'
p136
F0.0013504475537383348
sS'films'
p137
F0.001014500922066451
sS'twists'
p138
F0.001414631293519195
sS'more'
p139
F0.00137671161329695
sS'sort'
p140
F0.001321203809053707
sS'company'
p141
F0.00077462397882037447
sS'line'
p142
F0.00098533611922780348
sS'underwear'
p143
F0.0011089713016008177
sS'merle'
p144
F0.00082217261930648308
sS'adult'
p145
F0.0012946446640384316
sS'faultless'
p146
F0.0013725315899949008
sS'excellent'
p147
F0.00094271066035924724
sS'baby'
p148
F0.0008038026797876313
sS'glad'
p149
F0.0010806299945196841
sS'must'
p150
F0.0014752387235941655
sS'me'
p151
F0.0010084351018752006
sS'animals'
p152
F0.0013087361733640571
sS'wouldnt'
p153
F0.00082324282345096872
sS'sutherland'
p154
F0.0014562028563332068
sS'this'
p155
F0.0010995850260892145
sS'phillip'
p156
F0.0012145477907340081
sS'melodrama'
p157
F0.0010563029017831294
sS'movies'
p158
F0.0015119227557745332
sS'exploitative'
p159
F0.0007935622520605218
sS'can'
p160
F0.0014088784192541929
sS'mr'
p161
F0.0007608860154166351
sS'im'
p162
F0.00097338051389109573
sS'didnt'
p163
F0.0012536791778556837
sS'beautiful'
p164
F0.0012828006035749918
sS'compare'
p165
F0.00088932232721309625
sS'give'
p166
F0.00079328292790532384
sS'etta'
p167
F0.0012276419700568933
sS'beautifully'
p168
F0.0011257652085531356
sS'confused'
p169
F0.00091275479610982953
sS'terrible'
p170
F0.0011308145709636123
sS'carrot'
p171
F0.0012070718604811478
sS'pulling'
p172
F0.0014259162231096444
sS'want'
p173
F0.0015103973361324824
sS'sense'
p174
F0.0013434418331692787
sS'wonderful'
p175
F0.00085642634405733989
sS'stole'
p176
F0.001048927558216013
sS'biography'
p177
F0.001430192562499035
sS'native'
p178
F0.00076932498400165224
sS'pink'
p179
F0.001468209661441104
sS'autobiography'
p180
F0.0011510866476085911
sS'needs'
p181
F0.001281882848294982
sS'end'
p182
F0.0014031354058779116
sS'sidney'
p183
F0.0012954821917833296
sS'rather'
p184
F0.001232411180705983
sS'get'
p185
F0.0012678282729616463
sS'off'
p186
F0.00085663067286921612
sS'rohmer'
p187
F0.00097356587021002331
sS'theyd'
p188
F0.0012729715902612109
sS'how'
p189
F0.00089670927996521983
sS'amazing'
p190
F0.0012760963980894215
sS'unites'
p191
F0.0013782267499923356
sS'pure'
p192
F0.00098352361715029792
sS'unworthy'
p193
F0.0014927821942177886
sS'instead'
p194
F0.00093492899298082519
sS'speaks'
p195
F0.0009608682532191603
sS'intelligent'
p196
F0.0013229163065793018
sS'kung'
p197
F0.0013923304074549697
sS'badly'
p198
F0.0011839719633394425
sS'unbelievable'
p199
F0.0012799875059858953
sS'shouldnt'
p200
F0.0014991207444650493
sS'fu'
p201
F0.0011880818387124202
sS'huge'
p202
F0.0010942315866963638
sS'mess'
p203
F0.0015023869666322086
sS'watch'
p204
F0.0008841776287768884
sS'waters'
p205
F0.0013363946515291458
sS'youve'
p206
F0.0010656895934718158
sS'collection'
p207
F0.00085419584272995654
sS'courtenay'
p208
F0.00091571798920849531
sS'soundtrack'
p209
F0.001272463597711011
sS'unsung'
p210
F0.00082443091870644579
sS'pave'
p211
F0.0008510434053137279
sS'designed'
p212
F0.00104558096202917
sS'coming'
p213
F0.0012799707051116352
sS'elviss'
p214
F0.001039644162633874
sS'fi'
p215
F0.00087289397174938996
sS'law'
p216
F0.0012023742131604669
sS'filthy'
p217
F0.0014579791167237594
sS'man'
p218
F0.0012130633386080974
sS'a'
p219
F0.0012036280554298623
sS'moments'
p220
F0.0014285750153160606
sS'resemble'
p221
F0.00092783808794873917
sS'whenever'
p222
F0.0012523389161864834
sS'appreciate'
p223
F0.00098391852830043516
sS'cosmology'
p224
F0.0012608678268088062
sS'perhaps'
p225
F0.00081044918002007196
sS'shore'
p226
F0.0014583844498244577
sS'funniest'
p227
F0.0013349799475967648
sS'keeps'
p228
F0.0014540549514348332
sS'fan'
p229
F0.0013538480282153263
sS'dream'
p230
F0.0012435350165869599
sS'talk'
p231
F0.00099047011695163069
sS'interpretation'
p232
F0.0011094411167161167
sS'help'
p233
F0.00076904917411994378
sS'producer'
p234
F0.0011791107480295408
sS'veidt'
p235
F0.0013447620363545648
sS'fiendish'
p236
F0.0014990047676531671
sS'top'
p237
F0.0010275965315048896
sS'years'
p238
F0.00083963993202130366
sS'brain'
p239
F0.0012670819284729266
sS'through'
p240
F0.00087427435480084547
sS'filters'
p241
F0.0008946816966821018
sS'cuts'
p242
F0.0013326295662856498
sS'broadway'
p243
F0.00096305285675776374
sS'still'
p244
F0.0014591811228043163
sS'its'
p245
F0.001154471486667297
sS'before'
p246
F0.0012435569226507722
sS'le'
p247
F0.00076774916577734451
sS'group'
p248
F0.00092895528125423396
sS'patekar'
p249
F0.0015185019887655755
sS'interesting'
p250
F0.0010310592862045052
sS'stupidity'
p251
F0.0014455208685259238
sS'actually'
p252
F0.00077568498316404498
sS'better'
p253
F0.00095137561387052458
sS'compelling'
p254
F0.0012647632444516318
sS'stephen'
p255
F0.000857574087804659
sS'hidden'
p256
F0.0014251578410311031
sS'holiday'
p257
F0.00099990813967732362
sS'then'
p258
F0.0012325453499782014
sS'them'
p259
F0.0013656293701930209
sS'good'
p260
F0.0012666798404969155
sS'than'
p261
F0.0014712784455941086
sS'scene'
p262
F0.00076329326378453974
sS'risqu'
p263
F0.0011868693688698449
sS'touching'
p264
F0.0010969364739284605
sS'vomit'
p265
F0.00097469596628184927
sS'effects'
p266
F0.0012685582936192898
sS'they'
p267
F0.00089302083866597869
sS'hands'
p268
F0.0012581558994194857
sS'not'
p269
F0.0008895183653472344
sS'now'
p270
F0.0010032935954006196
sS'cage'
p271
F0.0013537238604129506
sS'subtitles'
p272
F0.0012199616504081259
sS'mesmerizing'
p273
F0.0010036076660760813
sS'issweet'
p274
F0.0012219352116423928
sS'name'
p275
F0.00090700274227402389
sS'always'
p276
F0.0010859304667937659
sS'with'
p277
F0.00084475467068222544
sS'realistic'
p278
F0.0014281390743951499
sS'delightful'
p279
F0.00093554718273735954
sS'each'
p280
F0.0014823096934623032
sS'found'
p281
F0.001147131261815957
sS'shocking'
p282
F0.00090748161605525457
sS'mean'
p283
F0.0014914841026489297
sS'tension'
p284
F0.00092202013909866971
sS'michael'
p285
F0.0012556658202104104
sS'flick'
p286
F0.00092280134114043925
sS'hard'
p287
F0.00084733249481266221
sS'directing'
p288
F0.0010273981966290014
sS'eisenstein'
p289
F0.001457302226996831
sS'begun'
p290
F0.0011602439364500443
sS'year'
p291
F0.00092824858490811479
sS'quantum'
p292
F0.0010090464670457668
sS'et'
p293
F0.00081543164456663426
sS'amusement'
p294
F0.0011013967928011753
sS'out'
p295
F0.0011420115684985215
sS'matrix'
p296
F0.00087035368603621073
sS'oprah'
p297
F0.001416525276035913
sS'plods'
p298
F0.00081542707887009012
sS'truly'
p299
F0.00090599219028276101
sS'unknown'
p300
F0.0010487157112289746
sS'your'
p301
F0.00077992486992327999
sS'content'
p302
F0.00094790701271337083
sS're'
p303
F0.0014923865139528181
sS'acting'
p304
F0.0012697281244060726
sS'stupid'
p305
F0.00097453110165963443
sS'unforgettable'
p306
F0.00090999391160175307
sS'tetsuo'
p307
F0.00095868944155010224
sS'got'
p308
F0.0014833403490355525
sS'<UNK>'
p309
F0.00075925520978982876
sS'cause'
p310
F0.0013334528134281518
sS'glover'
p311
F0.0011303908102332132
sS'lawrence'
p312
F0.00098040708545852262
sS'story'
p313
F0.0013578031033819023
sS'free'
p314
F0.00098963188781005934
sS'quite'
p315
F0.00098529759592380878
sS'imagine'
p316
F0.0011010046828149112
sS'ask'
p317
F0.0011533113146394956
sS'scarred'
p318
F0.0015031643653214421
sS'beginning'
p319
F0.00094159521476931652
sS'loads'
p320
F0.0014395458604123709
sS'silent'
p321
F0.0012225704366586546
sS'enormous'
p322
F0.0011204150369596793
sS'language'
p323
F0.0010018350323846947
sS'dubbed'
p324
F0.0011417065141120528
sS'gallons'
p325
F0.00087786597729657832
sS'could'
p326
F0.0014388232984402017
sS'days'
p327
F0.0013542501610131093
sS'keep'
p328
F0.0012261289420461643
sS'auteuil'
p329
F0.0015149401012654481
sS'thing'
p330
F0.00078683869400601194
sS'footwear'
p331
F0.0013016009138506954
sS'adrian'
p332
F0.00077371299421351097
sS'davis'
p333
F0.00078884125804058302
sS'moving'
p334
F0.0010841257723408608
sS'fallen'
p335
F0.0011138426554746837
sS'think'
p336
F0.0014232740663733853
sS'waited'
p337
F0.0011944323904435501
sS'first'
p338
F0.0008648083145533532
sS'emotion'
p339
F0.0012252586057598228
sS'cheese'
p340
F0.0014994913822853626
sS'langlaise'
p341
F0.0010514459673092343
sS'dont'
p342
F0.00093520392399770735
sS'oberon'
p343
F0.0010299787567385732
sS'powerful'
p344
F0.0010041631518678672
sS'primary'
p345
F0.0014729424200722601
sS'hoot'
p346
F0.0014794086421734225
sS'one'
p347
F0.0014156001047754235
sS'lovable'
p348
F0.00097179856359463457
sS'done'
p349
F0.0011220077392932628
sS'another'
p350
F0.00086992815778174596
sS'impossible'
p351
F0.00076602748138147544
sS'miss'
p352
F0.0013426114259707162
sS'kane'
p353
F0.0008127736878297268
sS'little'
p354
F0.0009574217843546115
sS'necessarily'
p355
F0.00099026343651434129
sS'personalities'
p356
F0.00076161049849746804
sS'script'
p357
F0.0013070454622342701
sS'totally'
p358
F0.0012987165673756524
sS'caught'
p359
F0.0010474222519782543
sS'tired'
p360
F0.0013357612859342296
sS'accent'
p361
F0.00084280838795372883
sS'least'
p362
F0.0010066528453269168
sS'fiction'
p363
F0.0009562916054241847
sS'anyone'
p364
F0.00092639079104539252
sS'their'
p365
F0.00083335889979795064
sS'NUM'
p366
F0.00086520204277299936
sS'mentally'
p367
F0.00085662936903793316
sS'tom'
p368
F0.00096411583794835999
sS'jingle'
p369
F0.0014841440332418435
sS'john'
p370
F0.0009733936495901561
sS'really'
p371
F0.00098015878578698069
sS'merciless'
p372
F0.0012338622490375714
sS'gives'
p373
F0.00086659522466468861
sS'that'
p374
F0.0013432771683955422
sS'toon'
p375
F0.0012682045029109989
sS'sweet'
p376
F0.0011952880626566447
sS'alan'
p377
F0.0010424367230565663
sS'glasshave'
p378
F0.00084815572260304507
sS'depressing'
p379
F0.0009464574131636997
sS'too'
p380
F0.0010505444658447998
sS'wasted'
p381
F0.00079512616738052302
sS'kept'
p382
F0.0010988856069412433
sS'copy'
p383
F0.0012579164619477916
sS'photographic'
p384
F0.00084051402531149183
sS'peculiar'
p385
F0.00082065799334072036
sS'sequel'
p386
F0.0010043880678691224
sS'loved'
p387
F0.0010526088945577157
sS'ben'
p388
F0.00087703495329504377
sS'overtaken'
p389
F0.0010452052474548893
sS'boring'
p390
F0.0010059054407794451
sS'scenes'
p391
F0.0013803066734794475
sS'purposeless'
p392
F0.0007873246151723401
sS'roberts'
p393
F0.001237887613964385
sS'matter'
p394
F0.001421875686869893
sS'bardwork'
p395
F0.001051332377444531
sS'were'
p396
F0.0011929618629713669
sS'listen'
p397
F0.0009218240088798282
sS'bet'
p398
F0.0011680223799080311
sS'sean'
p399
F0.00088674405442716782
sS'and'
p400
F0.0010480802479332094
sS'mink'
p401
F0.0011615190214575356
sS'outstanding'
p402
F0.0012404385193985369
sS'ages'
p403
F0.0008945563111548171
sS'ming'
p404
F0.0014490477918902523
sS'say'
p405
F0.00098097015625490838
sS'mates'
p406
F0.0012866217831401794
sS'comedian'
p407
F0.00081288394883813667
sS'have'
p408
F0.0010892377420498294
sS'need'
p409
F0.00078339798901840463
sS'seen'
p410
F0.0012082390363063814
sS'seem'
p411
F0.0011485226374279853
sS'saw'
p412
F0.001341428917165549
sS'worst'
p413
F0.0010452575352653604
sS'sat'
p414
F0.0008101965443023558
sS'lightweight'
p415
F0.0013865402962815706
sS'drunk'
p416
F0.00089321528530268072
sS'self'
p417
F0.0011428359732316453
sS'able'
p418
F0.0011088393903814144
sS'also'
p419
F0.00089292568060850308
sS'ideal'
p420
F0.00083395385331451119
sS'animation'
p421
F0.00097239996438760784
sS'take'
p422
F0.0010141703128594757
sS'which'
p423
F0.00083359378378549537
sS'sleeper'
p424
F0.0012836107241140922
sS'fishburn'
p425
F0.0013115900079051421
sS'uninstructive'
p426
F0.0014264723984335553
sS'begin'
p427
F0.00076100115616295917
sS'caliber'
p428
F0.0010039971472137819
sS'hires'
p429
F0.0011055514754747921
sS'though'
p430
F0.0013722974964864671
sS'price'
p431
F0.0014251980228004331
sS'who'
p432
F0.0014830193679374985
sS'spewing'
p433
F0.0012795030429310504
sS'intentions'
p434
F0.00082958060539731432
sS'nothing'
p435
F0.00089626119402871961
sS'america'
p436
F0.0012337177951520688
sS'extremely'
p437
F0.0010555831748103816
sS'class'
p438
F0.00099851229751026492
sS'thriller'
p439
F0.0013586919551277158
sS'episode'
p440
F0.0011717480108198593
sS'especially'
p441
F0.0015170157086321341
sS'performances'
p442
F0.0014515160901268096
sS'average'
p443
F0.0010974351164904634
sS'camp'
p444
F0.0011976538293690282
sS'dog'
p445
F0.00087018783034748394
sS'rental'
p446
F0.00077884762642812372
sS'physics'
p447
F0.0013955260329292505
sS'literate'
p448
F0.0013453582138207639
sS'fact'
p449
F0.0014522379825922817
sS'rating'
p450
F0.00088031824874450421
sS'cobra'
p451
F0.0011734483994611429
sS'particularly'
p452
F0.00079799859884586955
sS'show'
p453
F0.0013710287281268193
sS'absorbing'
p454
F0.0012844696958947968
sS'ralph'
p455
F0.0011141376921195425
sS'cheap'
p456
F0.0013194337548230878
sS'ending'
p457
F0.00085482026222128272
sS'oprahs'
p458
F0.0014805984981804028
sS'drawings'
p459
F0.0012824626392970997
sS'finn'
p460
F0.00088838559848318814
sS'regulars'
p461
F0.0010794734613988062
sS'subtle'
p462
F0.0014112562216583133
sS'boggle'
p463
F0.0014968295435494165
sS'enjoyed'
p464
F0.0014495715615013781
sS'aint'
p465
F0.0014432863489790726
sS'touches'
p466
F0.0010738429508919476
sS'filmed'
p467
F0.0012314013008007723
sS'noir'
p468
F0.0013389584281516798
sS'favor'
p469
F0.0014123122305976751
sS'justice'
p470
F0.00094016392819077136
sS'someone'
p471
F0.001240207062302924
sS'sentence'
p472
F0.001360593584235077
sS'outside'
p473
F0.001506451789886881
sS'unhappy'
p474
F0.00093101662709544882
sS'disembowelment'
p475
F0.0011661864358869585
sS'nooooo'
p476
F0.001512292965660321
sS'failed'
p477
F0.00082717170264615569
sS'only'
p478
F0.00091990457725715325
sS'going'
p479
F0.00088005140031577149
sS'wooden'
p480
F0.00087856765021825935
sS'watching'
p481
F0.0013850012526424808
sS'over'
p482
F0.0013560111163342223
sS'hope'
p483
F0.00098310030017656111
sS'do'
p484
F0.00091381001488461072
sS'his'
p485
F0.0011671299909764943
sS'handle'
p486
F0.0015142045568416684
sS'exceptional'
p487
F0.00099621404380939517
sS'dependent'
p488
F0.0011895032441581767
sS'intellectually'
p489
F0.0010192480452882904
sS'portiers'
p490
F0.0010764486751664905
sS'express'
p491
F0.0014153551048148652
sS'overall'
p492
F0.0013136145709433964
sS'integrity'
p493
F0.0011872057723857736
sS'so'
p494
F0.0010415183209000075
sS'courage'
p495
F0.0011435846248103541
sS'words'
p496
F0.0010640975268914057
sS'despite'
p497
F0.00076649059996989125
sS'dr'
p498
F0.0011382429114502163
sS'him'
p499
F0.0012418399865471539
sS'gem'
p500
F0.0014350006945487855
sS'ended'
p501
F0.00079451310720774274
sS'youll'
p502
F0.0014128679237238144
sS'turner'
p503
F0.0011382701282867083
sS'twice'
p504
F0.0013407134155050148
sS'bad'
p505
F0.0013240504602868288
sS'priest'
p506
F0.00079692879224174792
sS'cartoons'
p507
F0.0010513817273386751
sS'wish'
p508
F0.001468807163673971
sS'cleavage'
p509
F0.00086246623063370841
sS'rabins'
p510
F0.0012590092885131094
sS'where'
p511
F0.00084378161729604343
sS'widow'
p512
F0.00091257032060682432
sS'set'
p513
F0.00079490986705634751
sS'branagh'
p514
F0.0010462935650357185
sS'miserably'
p515
F0.0012009337479103324
sS'fascinating'
p516
F0.00088317465913975365
sS'up'
p517
F0.00087603372343591612
sS'see'
p518
F0.0011574739370160049
sS'asleep'
p519
F0.0011411294267468393
sS'are'
p520
F0.0010044746072342013
sS'hell'
p521
F0.0012868953338743649
sS'disturbing'
p522
F0.00079095124412196518
sS'armageddon'
p523
F0.0010738666291580565
sS'sport'
p524
F0.00095283508515644989
sS'best'
p525
F0.001023218970505106
sS'subject'
p526
F0.00084697914661218104
sS'smallville'
p527
F0.0015181992677018509
sS'lots'
p528
F0.0010008062526573173
sS'movie'
p529
F0.0012518596700877033
sS'away'
p530
F0.00094522622881987621
sS'definite'
p531
F0.0014433214191180586
sS'superb'
p532
F0.0012023599247837045
sS'genius'
p533
F0.0015051045558356006
sS'fans'
p534
F0.0010180237989855739
sS'between'
p535
F0.00077398204870769574
sS'encounters'
p536
F0.0014512484901383674
sS'available'
p537
F0.0010436621709740391
sS'spacegirl'
p538
F0.00097782190220241957
sS'lazy'
p539
F0.0012540415552975486
sS'never'
p540
F0.00077509517684322209
sS'weak'
p541
F0.00095212324053137154
sS'screen'
p542
F0.0011328664668697403
sS'attention'
p543
F0.00091183486589811063
sS'deliver'
p544
F0.0013602723088175081
sS'however'
p545
F0.00081614772837178707
sS'jr'
p546
F0.00084117096759905895
sS'job'
p547
F0.0014796786086539086
sS'here'
p548
F0.001186060281572789
sS'ike'
p549
F0.0012212979510907796
sS'genre'
p550
F0.001173902169528618
sS'mcdowell'
p551
F0.0012322214168782484
sS'impromptu'
p552
F0.00090076119226214872
sS'thank'
p553
F0.0007848463752970202
sS'pity'
p554
F0.0010982277307464304
sS'drum'
p555
F0.00092537121311095773
sS'talented'
p556
F0.001415543987447545
sS'excrement'
p557
F0.00095098825721901263
sS'many'
p558
F0.0011450393516767581
sS'ill'
p559
F0.0011417105062834999
sS'adventures'
p560
F0.00084678064101275546
sS'ramgopal'
p561
F0.00089803719766167389
sS'etc'
p562
F0.0010716545039994095
sS'similarities'
p563
F0.0010298362080011735
sS'swim'
p564
F0.001123152068696931
sS'puff'
p565
F0.0011046882576784063
sS'comment'
p566
F0.0009765344261108901
sS'screenplay'
p567
F0.00098336909650636973
sS'liked'
p568
F0.0013506902307944409
sS'premise'
p569
F0.0015007364723354866
sS'characterization'
p570
F0.00086981228852203339
sS'color'
p571
F0.0009121715896726817
sS'had'
p572
F0.0012973882671279487
sS'acted'
p573
F0.0014288672894509997
sS'whatever'
p574
F0.0012784636122578077
sS'cd'
p575
F0.0010344044019285031
sS'written'
p576
F0.00099906646608175593
sS'simply'
p577
F0.0012504052173875773
sS'laugh'
p578
F0.001445614296699721
sS'sammy'
p579
F0.0011577004982454811
sS'throughout'
p580
F0.00087039289981828607
sS'late'
p581
F0.0010900256160344434
sS'second'
p582
F0.0012542030863292293
sS'cares'
p583
F0.0012786718035865145
sS'tremendous'
p584
F0.0012230704448598505
sS'satire'
p585
F0.0013329686789077409
sS'three'
p586
F0.0013939458604913047
sS'been'
p587
F0.0012896697662300271
sS'much'
p588
F0.00089081648405806523
sS'hindi'
p589
F0.00096938612864630447
sS'understated'
p590
F0.00085528533168606089
sS'waste'
p591
F0.00092458564795669211
sS'recurring'
p592
F0.00082579260841625921
sS'enraptured'
p593
F0.0011594135647149399
sS'direction'
p594
F0.00094467336449952576
sS'monsieur'
p595
F0.0013348006789398036
sS'drugs'
p596
F0.00095942996247184878
sS'mind'
p597
F0.0010919736799660463
sS'elvis'
p598
F0.0014607873305843883
sS'great'
p599
F0.0007817094336458497
sS'last'
p600
F0.0014564576454157484
sS'sad'
p601
F0.0010518691590577672
sS'has'
p602
F0.0014084757305687912
sS'look'
p603
F0.00081297894511620969
sS'plain'
p604
F0.0008813581317983029
sS'value'
p605
F0.0012951219621753752
sS'will'
p606
F0.0014885752840724633
sS'cast'
p607
F0.0013216841436124321
sS'promising'
p608
F0.0012230928867540322
sS'fun'
p609
F0.0012228206451428856
sS'voice'
p610
F0.0007801672369507147
sS'rembrandt'
p611
F0.0012959620613409457
sS'jokers'
p612
F0.0014563864496962885
sS'inherits'
p613
F0.0013524541748758416
sS'actresses'
p614
F0.0012915383100614135
sS'unlikeable'
p615
F0.0013889968142971659
sS've'
p616
F0.0012814693584438635
sS'almost'
p617
F0.00095357282824968777
sS'is'
p618
F0.0011003588143075563
sS'it'
p619
F0.0012722082207067482
sS'shame'
p620
F0.0011150141693337745
sS'cant'
p621
F0.0014301448600173858
sS'itself'
p622
F0.00081482992221022213
sS'gothic'
p623
F0.00099554861688913566
sS'deneuve'
p624
F0.0009535967290860588
sS'cook'
p625
F0.0012427932266359364
sS'victims'
p626
F0.0011046905759948739
sS'id'
p627
F0.0014702957011136363
sS'if'
p628
F0.00097165220528125666
sS'funny'
p629
F0.0013685657680130338
sS'different'
p630
F0.00093374378296891465
sS'shirt'
p631
F0.00085283485668622523
sS'pauly'
p632
F0.0014594576722399453
sS'blasphemous'
p633
F0.0010850821380114519
sS'make'
p634
F0.00080428708503978499
sS'reminded'
p635
F0.00077222105223352915
sS'same'
p636
F0.00081982084362692686
sS'wicked'
p637
F0.0013115085789886171
sS'silliest'
p638
F0.0012710124031458569
sS'week'
p639
F0.00085906353454805683
sS'visually'
p640
F0.0010546672650550348
sS'finish'
p641
F0.00091045537736271747
sS'barefoot'
p642
F0.0014832749262873497
sS'hawkingsoundtrack'
p643
F0.00089622407297533426
sS'evil'
p644
F0.0013214890136951727
sS'director'
p645
F0.0009852294426625002
sS'couldve'
p646
F0.00099120903437201332
sS'manchu'
p647
F0.00093656321501603434
sS'characters'
p648
F0.0012850242876090373
sS'haunting'
p649
F0.00084523869032222733
sS'opportunity'
p650
F0.0013930778167168397
sS'endearing'
p651
F0.0012742860364917095
sS'kid'
p652
F0.0014767307618763085
sS'simulates'
p653
F0.00095998086984072043
sS'in'
p654
F0.0011431183809042593
sS'pacino'
p655
F0.001454952541988061
sS'raimy'
p656
F0.0014058150374282362
sS'i'
p657
F0.0012140970646199931
sS'makes'
p658
F0.0012138456898532566
sS'well'
p659
F0.0007799625694037707
sS'spent'
p660
F0.0014530162498407166
sS'obviously'
p661
F0.00086117946900632824
sS'thought'
p662
F0.0012854894266839596
sS'person'
p663
F0.0015137401753159937
sS'costs'
p664
F0.00086031607250418546
sS'greatest'
p665
F0.0013163221717188522
sS'english'
p666
F0.0012403075712478858
sS'the'
p667
F0.0013639208678553482
sS'chemistry'
p668
F0.00081970757654040367
sS'usual'
p669
F0.001071677636516084
sS'just'
p670
F0.0014166168077222395
sS'less'
p671
F0.0014213940153333547
sS'being'
p672
F0.001510238347168026
sS'money'
p673
F0.00091161580028183663
sS'prints'
p674
F0.0012048152332906491
sS'tobe'
p675
F0.0011338166333371192
sS'victim'
p676
F0.0013693471125644709
sS'summed'
p677
F0.0014531256086344133
sS'vamp'
p678
F0.0013859793780523343
sS'reality'
p679
F0.00097422962559613226
sS'godfathers'
p680
F0.0015124528084171139
sS'captured'
p681
F0.00084245410771812161
sS'blow'
p682
F0.0014563705807199895
sS'hated'
p683
F0.00079858225161584832
sS'assassination'
p684
F0.00089977907390684719
sS'character'
p685
F0.0012465679131523999
sS'add'
p686
F0.001273891527607319
sS'other'
p687
F0.0013780496559226653
sS'citizen'
p688
F0.0014949088053902173
sS'usage'
p689
F0.0011469789595774207
sS'role'
p690
F0.00076740094759692053
sS'acrobatics'
p691
F0.00091973002058962485
sS'malcolm'
p692
F0.0013203205332425151
sS'gave'
p693
F0.0014381525298706678
sS'basset'
p694
F0.00081483828852314973
sS'casting'
p695
F0.00094140236587902384
sS'definitive'
p696
F0.0015128014349815005
sS'spectacular'
p697
F0.0013074676048088194
sS'read'
p698
F0.001492699731017684
sS'big'
p699
F0.001160114707170032
sS'couple'
p700
F0.00079273702999198259
sS'possible'
p701
F0.0013260214480268061
sS'early'
p702
F0.0013899019847336488
sS'know'
p703
F0.00081166591329564781
sS'background'
p704
F0.00090307842637612741
sS'performance'
p705
F0.0014823823387049683
sS'symbolism'
p706
F0.0010365640454493568
sS'world'
p707
F0.00099008034660479668
sS'bit'
p708
F0.0011819410528659362
sS'execution'
p709
F0.00082778990716113571
sS'you'
p710
F0.001184265702893337
sS'incredibly'
p711
F0.0014295649360652122
sS'like'
p712
F0.00090788804317975299
sS'marvelous'
p713
F0.001462813222473665
sS'vibrant'
p714
F0.0009541693360678046
sS'interestingly'
p715
F0.0011611048923154507
sS'musnt'
p716
F0.0013385539524889919
sS'pasdar'
p717
F0.001005735169984621
sS'eeh'
p718
F0.00095753564667957689
sS'james'
p719
F0.0012213132857367521
sS'works'
p720
F0.00086857138771214511
sS'old'
p721
F0.00087729903914457474
sS'people'
p722
F0.0013210310064079641
sS'absolutely'
p723
F0.0014777272677667002
sS'some'
p724
F0.0011563734166773264
sS'unintentionally'
p725
F0.00082760947968445967
sS'added'
p726
F0.00091428194533445598
sS'venue'
p727
F0.0010969726831678731
sS'home'
p728
F0.00096160539834449197
sS'divine'
p729
F0.0011132999910520023
sS'redeeming'
p730
F0.00096724579742528524
sS'trust'
p731
F0.0010959343604300096
sS'humor'
p732
F0.0012690493267984843
sS'for'
p733
F0.0011453760034739946
sS'avoid'
p734
F0.00099719466879940092
sS'fox'
p735
F0.0013081257718322271
sS'wrong'
p736
F0.0011603827164763411
sS'when'
p737
F0.00080422735077679923
sS'does'
p738
F0.0009862523421508959
sS'screwed'
p739
F0.0011354024220511614
sS'epic'
p740
F0.0013411218176234765
sS'participation'
p741
F0.0013637100170791514
sS'either'
p742
F0.0013448866130370525
sS'be'
p743
F0.0012751155258334586
sS'sensible'
p744
F0.0014921413733508695
sS'night'
p745
F0.0011561292728776453
sS'costumes'
p746
F0.0014958039690762899
sS'directeur'
p747
F0.0007910968770512485
sS'credits'
p748
F0.0014238663892478566
sS'step'
p749
F0.0010518804894187163
sS'although'
p750
F0.0014605072877543674
sS'worthy'
p751
F0.0012146654236075958
sS'super'
p752
F0.00077612575503943182
sS'by'
p753
F0.0012794955790585646
sS'stage'
p754
F0.0014678347982212125
sS'on'
p755
F0.0012464279299458619
sS'about'
p756
F0.0012147958358211042
sS'would'
p757
F0.001111523083448653
sS'piles'
p758
F0.00077386598805689888
sS'most'
p759
F0.0011044839972671814
sS'of'
p760
F0.0010690459389205789
sS'favorite'
p761
F0.00077177917873730729
sS'o'
p762
F0.0012772621640670899
sS'deserves'
p763
F0.00087955802331109493
sS'flaky'
p764
F0.0013359484516494819
sS'plus'
p765
F0.0013455127151598798
sS'anime'
p766
F0.0011383485027553137
sS'dialog'
p767
F0.0010737428333752073
sS'act'
p768
F0.0012551086871617583
sS'mixed'
p769
F0.0012956808873459329
sS'whilst'
p770
F0.0013680517885999778
sS'or'
p771
F0.0007832097455766488
sS'road'
p772
F0.00082322813855502798
sS'storytellng'
p773
F0.0010555856912856209
sS'seeing'
p774
F0.0012243717352009606
sS'own'
p775
F0.0010561556144896012
sS'within'
p776
F0.0010439623979049738
sS'son'
p777
F0.0013948155827028935
sS'down'
p778
F0.0015168730415646022
sS'rendering'
p779
F0.0010244439494756338
sS'doesnt'
p780
F0.0011561691301986614
sS'tiny'
p781
F0.00099491856086720665
sS'gary'
p782
F0.0014359153178052197
sS'adrenalin'
p783
F0.0014720088706886717
sS'her'
p784
F0.0013125149491077161
sS'daniels'
p785
F0.00083009091129848266
sS'question'
p786
F0.00094684394202083921
sS'long'
p787
F0.00099613419509043976
sS'kidding'
p788
F0.00082141359689954531
sS'start'
p789
F0.00094791475124811125
sS'way'
p790
F0.00097435552671142848
sS'was'
p791
F0.0013946579389770293
sS'melodic'
p792
F0.001419582288155836
sS'yellow'
p793
F0.0010075998104065421
sS'buy'
p794
F0.0012721839912668668
sS'believe'
p795
F0.00094576313732585269
sS'inept'
p796
F0.0013405293964991749
sS'but'
p797
F0.00093293579666057103
sS'undeserving'
p798
F0.00081715921235172098
sS'talents'
p799
F0.0010139126422722461
sS'delivers'
p800
F0.0011927247973476591
sS'amateurish'
p801
F0.0010755412747604225
sS'true'
p802
F0.001343627630907473
sS'dull'
p803
F0.00076499185749434769
sS'intestines'
p804
F0.00078141993527599011
sS'he'
p805
F0.00097999923692724438
sS'directed'
p806
F0.0010816519911483907
sS'made'
p807
F0.00088048182667787743
sS'romantic'
p808
F0.001518393088232679
sS'whether'
p809
F0.0012113085624321988
sS'heartwarming'
p810
F0.0014252686848777421
sS'j'
p811
F0.0010016959767358794
sS'verma'
p812
F0.001067981262152011
sS'trash'
p813
F0.0012168799845549527
sS'us'
p814
F0.0010478419485019095
sS'stories'
p815
F0.001340587941145516
sS'young'
p816
F0.0014181726586066574
sS'electrifying'
p817
F0.00096582552230460952
sS'minutes'
p818
F0.00092443060432251061
sS'pulp'
p819
F0.0011585091389849159
sS'interplay'
p820
F0.0014056391320692865
sS'gone'
p821
F0.00088198471883083409
sS'sometimes'
p822
F0.0010934718151197
sS'freak'
p823
F0.0012676543122862578
sS'worthwhile'
p824
F0.001158343829398319
sS'barrymore'
p825
F0.00096155459602816529
sS'classic'
p826
F0.0010509835080978142
sS'defined'
p827
F0.0010162757622663528
sS'moved'
p828
F0.0007982303458480308
sS'al'
p829
F0.0011785040229383246
sS'wartime'
p830
F0.00076438688375647418
sS'an'
p831
F0.0011279326645169232
sS'as'
p832
F0.0009206645103140385
sS'at'
p833
F0.0013752485672894144
sS'politics'
p834
F0.0014582899351970459
sS'psychopath'
p835
F0.0007786837164527982
sS'film'
p836
F0.0013251830355165801
sS'defines'
p837
F0.0010501905985824261
sS'tedious'
p838
F0.0012932888709178232
sS'again'
p839
F0.0012751098517075274
sS'peter'
p840
F0.0010329816477951028
sS'no'
p841
F0.00086829979292982716
sS'there'
p842
F0.00078261482825681106
sS'boot'
p843
F0.001133815506505048
sS'actor'
p844
F0.0013190051971585406
sS'lately'
p845
F0.0012664614501160572
sS'tim'
p846
F0.00093239453518299256
sS'book'
p847
F0.00087321361856383878
sS'actors'
p848
F0.0012374992464980084
sS'special'
p849
F0.0012563441742530904
sS'finch'
p850
F0.00089890798531916665
sS'holly'
p851
F0.0013425426229801418
sS'sucked'
p852
F0.0013054866185035941
sS'incomprehensible'
p853
F0.00091222010782067832
sS'roll'
p854
F0.00098614035719983236
sS'poor'
p855
F0.0010582429436381306
sS'picture'
p856
F0.00089428661316126427
sS'star'
p857
F0.00087533597169235319
sS'surfin'
p858
F0.0014905793847010773
sS'why'
p859
F0.0014176474526002287
sS'recent'
p860
F0.00093500228279798576
sS'serious'
p861
F0.0014227583430785951
sS'sandler'
p862
F0.0013640508127543566
sS'unfunny'
p863
F0.0013183447263295045
sS'friends'
p864
F0.0014048836385679349
sS'died'
p865
F0.0013303278325325219
sS'missed'
p866
F0.0012818742360254968
sS'ago'
p867
F0.001190198764956523
sS'e'
p868
F0.001071713125212085
sS'unentertaining'
p869
F0.0011851738356361049
sS'wife'
p870
F0.0011986313813316695
sS'ranks'
p871
F0.0013551717119273188
sS'dvd'
p872
F0.0013448612914417311
sS'yacht'
p873
F0.0012118727429546385
sS'walked'
p874
F0.0013468877140577148
sS'directors'
p875
F0.0014629377263248159
sS'adam'
p876
F0.0014691360047702387
sS'volumes'
p877
F0.00093386866549591665
sS'time'
p878
F0.00079805707116040701
sS'richardson'
p879
F0.0012939845194782612
sS'underrated'
p880
F0.0012779461097002811
sS'songs'
p881
F0.0008307150730488931
sS'once'
p882
F0.0010317459792013295
ssS'0'
p883
(dp884
g3
F0.0014439142916162784
sg4
F0.0010597099536234654
sg5
F0.00095460230826018
sg6
F0.00081236782253349654
sg7
F0.0014745530855480582
sg8
F0.00093563989256010486
sg9
F0.0014792763918907632
sg10
F0.0010002145824735374
sg11
F0.0013631911449147167
sg12
F0.0013789936461331312
sg13
F0.0013028131637087713
sg14
F0.0012360262184170907
sg15
F0.0015074574000975354
sg16
F0.0010383032627595409
sg17
F0.0014642255127527472
sg18
F0.0012048564570389354
sg19
F0.0012702311150660671
sg20
F0.0013197679187988401
sg21
F0.00095258337534946701
sg22
F0.00080497419873080977
sg23
F0.0010063511190868154
sg24
F0.0011379504670337489
sg25
F0.0012008004410724077
sg26
F0.0010169369970092507
sg27
F0.0013531416152065842
sg28
F0.00081526871911272994
sg29
F0.00091499198446939422
sg30
F0.0013409921285005566
sg31
F0.0013882442011826617
sg32
F0.0009379399525970486
sg33
F0.0012333401456700085
sg34
F0.0010103088635710208
sg35
F0.00092408287619896842
sg36
F0.0012355689196062887
sg37
F0.0013142727933989301
sg38
F0.0014000830036586995
sg39
F0.0012330515297552314
sg40
F0.0012946578096894445
sg41
F0.00092507417794793277
sg42
F0.00095373294298463254
sg43
F0.0014013585561787429
sg44
F0.0011134566480654204
sg45
F0.0014143100430108104
sg46
F0.00096904233257278597
sg47
F0.0014092438734070677
sg48
F0.00098540283671489097
sg49
F0.00091366679549224428
sg50
F0.0012294178220471107
sg51
F0.0013364320174407045
sg52
F0.0014013866395392442
sg53
F0.0015201916727339906
sg54
F0.0013500407379796818
sg55
F0.0013074197867667951
sg56
F0.0013233798992170968
sg57
F0.00077343933404460654
sg58
F0.00084911110800954689
sg59
F0.0009292373750939873
sg60
F0.0012194482737796831
sg61
F0.0013383254563359361
sg62
F0.00087966668345265003
sg63
F0.00080349104872770485
sg64
F0.001104468569995403
sg65
F0.0014519642254330579
sg66
F0.0013832014464059406
sg67
F0.00095061021820968259
sg68
F0.001016243958304312
sg69
F0.0012285463059570512
sg70
F0.0011838313910274723
sg71
F0.00091605974219640947
sg72
F0.0011736451225497749
sg73
F0.0013677920555063823
sg74
F0.0012549881736306477
sg75
F0.0014423519100449406
sg76
F0.0014194806379254337
sg77
F0.0014303713491692991
sg78
F0.0014365580083905787
sg79
F0.00094452483096058113
sg80
F0.0013037588730380101
sg81
F0.0014485784653855277
sg82
F0.0012977276122143216
sg83
F0.0010297338815833199
sg84
F0.00098489317485949096
sg85
F0.0012183393779179863
sg86
F0.0013774399763170006
sg87
F0.0012516223768387126
sg88
F0.0013428629600534989
sg89
F0.00099089691647001967
sg90
F0.0011087598861895642
sg91
F0.0010105492483651647
sg92
F0.0010984574273273852
sg93
F0.00098422939477994516
sg94
F0.00085615471101529821
sg95
F0.0015187241978923151
sg96
F0.0013387011659637016
sg97
F0.0011590094768705857
sg98
F0.0010963290677715716
sg99
F0.0010946509852169286
sg100
F0.0012318196099750424
sg101
F0.001161582451924302
sg102
F0.0011218928735335656
sg103
F0.0015117672751172443
sg104
F0.0010041983240981259
sg105
F0.0014537836622062527
sg106
F0.0012955728749792167
sg107
F0.00087585650881454708
sg108
F0.00092180249797747273
sg109
F0.0014268854120097162
sg110
F0.0012993591371592819
sg111
F0.00095633889613786925
sg112
F0.00093874472373611762
sg113
F0.0011871966848390715
sg114
F0.0013993290062946811
sg115
F0.0013942911913870303
sg116
F0.0015251568724740786
sg117
F0.0014309521923645035
sg118
F0.001178222398861605
sg119
F0.00096860808238504121
sg120
F0.0010859565632170645
sg121
F0.0011843028762208482
sg122
F0.0013597357453234225
sg123
F0.0014743492004181571
sg124
F0.001033173743984308
sg125
F0.00084557195938392391
sg126
F0.0010886975153365655
sg127
F0.00089473733461380937
sg128
F0.0014837799407925853
sg129
F0.0012905231542799146
sg130
F0.0011098967742895799
sg131
F0.0010536280442429611
sg132
F0.0014534798829633738
sg133
F0.0011124256863193729
sg134
F0.001099476490725193
sg135
F0.0009557887007935669
sg136
F0.00090290174240403973
sg137
F0.0008408589666294838
sg138
F0.00083071466227793895
sg139
F0.0012869504114910715
sg140
F0.0011696280908906119
sg141
F0.00140089074670502
sg142
F0.0014572241783300877
sg143
F0.0014737749026607135
sg144
F0.0010227455129866096
sg145
F0.0012598345590989414
sg146
F0.00085892883037555728
sg147
F0.00079563376146355726
sg148
F0.0014027955728303984
sg149
F0.00078362671075406991
sg150
F0.0008061066637935451
sg151
F0.0011717826489876888
sg152
F0.0011461646422989587
sg153
F0.00083925496134137152
sg154
F0.0012283572398345893
sg155
F0.0012996253123800279
sg156
F0.00079833777841930502
sg157
F0.00087696072901623354
sg158
F0.0013705528868119879
sg159
F0.00079426464615234922
sg160
F0.0013544549110043192
sg161
F0.0011666245716113871
sg162
F0.00099129633345510317
sg163
F0.0010832740323331496
sg164
F0.00094671910140313215
sg165
F0.001424942478654866
sg166
F0.00094375165733359787
sg167
F0.0011666742710103324
sg168
F0.0010770075321860739
sg169
F0.0010580670209568289
sg170
F0.0012447559463956942
sg171
F0.0010010578286977095
sg172
F0.00098430613476164532
sg173
F0.0015314980528080631
sg174
F0.00077597172425360162
sg175
F0.0012733162103762553
sg176
F0.00090296700034289516
sg177
F0.0013210561562862092
sg178
F0.0010835269032369059
sg179
F0.00086443024410096775
sg180
F0.00077073343851652659
sg181
F0.0011137386033506509
sg182
F0.0010036457392556635
sg183
F0.0012611139324263131
sg184
F0.0012681780673354883
sg185
F0.0012985076424725859
sg186
F0.00088448409451632082
sg187
F0.0011535322624242237
sg188
F0.00082152156586071698
sg189
F0.001196173163562405
sg190
F0.0014411368829594089
sg191
F0.0012526972368535796
sg192
F0.00081726046976151917
sg193
F0.0013677645058313205
sg194
F0.00093339027395589181
sg195
F0.0013861611836358068
sg196
F0.00079254113061510067
sg197
F0.0011232038079067861
sg198
F0.0014427210457281035
sg199
F0.0014126528068351767
sg200
F0.0010825740495812174
sg201
F0.0011156437040151545
sg202
F0.0011841245948139916
sg203
F0.00084574077255609623
sg204
F0.001028957720703578
sg205
F0.0008198291083275661
sg206
F0.0012984562552450099
sg207
F0.00083643426298159402
sg208
F0.0015115918099542218
sg209
F0.00084795833461940391
sg210
F0.00080902576973960571
sg211
F0.001171170054815682
sg212
F0.00092868409732902227
sg213
F0.00099069971653195882
sg214
F0.0010783171116563745
sg215
F0.0014600674195458842
sg216
F0.0013293980882033863
sg217
F0.00098809210629202367
sg218
F0.0011078372059990969
sg219
F0.0013617756902908138
sg220
F0.0014421024807462267
sg221
F0.00083991574712918068
sg222
F0.00080306726626057031
sg223
F0.0012649855428719006
sg224
F0.0014070340146238437
sg225
F0.0011592097380325262
sg226
F0.0013188695262128767
sg227
F0.00077374105132009031
sg228
F0.0014586728164476897
sg229
F0.0011365092301554773
sg230
F0.0012487822303490434
sg231
F0.001396858273767951
sg232
F0.0008230605771411654
sg233
F0.0011871931357349736
sg234
F0.0010535330355115234
sg235
F0.0013498693414530172
sg236
F0.00092577594850402336
sg237
F0.0013366096398721625
sg238
F0.00084467302189598697
sg239
F0.0012710865294329494
sg240
F0.00098258576378686363
sg241
F0.00093427714358671767
sg242
F0.0012985615139683552
sg243
F0.0011551204939544693
sg244
F0.0015157341887420109
sg245
F0.00104539311686015
sg246
F0.0012689422074054404
sg247
F0.0011790314634895973
sg248
F0.0013366138849862509
sg249
F0.0014902275269839918
sg250
F0.0013526478096065611
sg251
F0.00087111721784642062
sg252
F0.0014306125209591156
sg253
F0.0015093033269003723
sg254
F0.0010371923689222401
sg255
F0.0013991740338409619
sg256
F0.00126747290991657
sg257
F0.0014974170789848261
sg258
F0.0013726286156286757
sg259
F0.001261269795299649
sg260
F0.0015021108935709298
sg261
F0.0010166516312833339
sg262
F0.0010024715774161128
sg263
F0.00080015066441194778
sg264
F0.0013127951688702321
sg265
F0.00077828707624276895
sg266
F0.0011257123037027182
sg267
F0.00086097085409015393
sg268
F0.00090178198383371528
sg269
F0.0014081692878366273
sg270
F0.00085952077165089001
sg271
F0.0010824944060416541
sg272
F0.0010328776376181828
sg273
F0.0011757772484464657
sg274
F0.001311345472901872
sg275
F0.0010927811180702436
sg276
F0.00087183856810096601
sg277
F0.0014968518784876951
sg278
F0.0011586956199209793
sg279
F0.0010542921900880459
sg280
F0.00093939490124747636
sg281
F0.0013507171632062187
sg282
F0.00087266148610233075
sg283
F0.0011446104679278984
sg284
F0.00083565437034978493
sg285
F0.00082797067259202193
sg286
F0.0010138015476181474
sg287
F0.0010079417542655819
sg288
F0.0012145036568670306
sg289
F0.0013944591828086378
sg290
F0.00090780673709229241
sg291
F0.0014663361372445922
sg292
F0.0008745079355005329
sg293
F0.00084471138824632457
sg294
F0.0010269914620468397
sg295
F0.00081691254576989655
sg296
F0.0012084241977207825
sg297
F0.0010993329615497786
sg298
F0.00096549671555011898
sg299
F0.0013308157469392537
sg300
F0.0009335668887639686
sg301
F0.0012056419694383208
sg302
F0.0014294959821502247
sg303
F0.00086483099539999715
sg304
F0.00083235035706721611
sg305
F0.00093158742362697399
sg306
F0.0013479401092238168
sg307
F0.0007952199702303441
sg308
F0.00077285321312320137
sg309
F0.00076575305977940526
sg310
F0.0015263655373627854
sg311
F0.0014560838197233896
sg312
F0.0011732056042584333
sg313
F0.0011777396497965674
sg314
F0.0014958432749215961
sg315
F0.00081546425454734686
sg316
F0.001466871427641565
sg317
F0.0015022545214924713
sg318
F0.0014861290158965767
sg319
F0.0010322532118557195
sg320
F0.0011054420875535268
sg321
F0.001005071337402242
sg322
F0.0014810767886565335
sg323
F0.00077474599143610105
sg324
F0.0011637266122752031
sg325
F0.0012524425048878918
sg326
F0.00085576847667409822
sg327
F0.0013489592959897525
sg328
F0.0010731424470191472
sg329
F0.0010715695917339803
sg330
F0.0011437454859656918
sg331
F0.00096968011277279859
sg332
F0.00094750098411432973
sg333
F0.0013291732438946114
sg334
F0.0012631034721491104
sg335
F0.00092116426601944587
sg336
F0.001179894582099317
sg337
F0.00099584373793838179
sg338
F0.0008669929122500623
sg339
F0.0007720903204601298
sg340
F0.0010719989227373911
sg341
F0.00080439217694750734
sg342
F0.0012071106875626092
sg343
F0.0011426608264512872
sg344
F0.001296830861467857
sg345
F0.00087205939757787558
sg346
F0.0014216685788541236
sg347
F0.00099224373316631137
sg348
F0.0011892341528539538
sg349
F0.0011098313029299102
sg350
F0.00084929661659094424
sg351
F0.0014018477823017023
sg352
F0.00084830836540960208
sg353
F0.0014300661046630048
sg354
F0.0010149661826660563
sg355
F0.0011940035201026742
sg356
F0.0014529224393404203
sg357
F0.00109040931406834
sg358
F0.0012802265633684669
sg359
F0.0012436722088828599
sg360
F0.0011201937580827836
sg361
F0.0014027409071885398
sg362
F0.0013000974744423704
sg363
F0.0012116188318344494
sg364
F0.0010260652187714884
sg365
F0.0012912491572866721
sg366
F0.00098530481538695956
sg367
F0.0013403833336253748
sg368
F0.00097363833089233792
sg369
F0.0014989790647729902
sg370
F0.0015301072361660146
sg371
F0.0011017671453360663
sg372
F0.0014830967692769409
sg373
F0.00087510845535672063
sg374
F0.0010089866320081204
sg375
F0.0013808355726071979
sg376
F0.0010607024268155742
sg377
F0.00078658402819943801
sg378
F0.0013026574595941672
sg379
F0.00090767478365565233
sg380
F0.00077858214520057183
sg381
F0.00093376725833471295
sg382
F0.00099963594027176216
sg383
F0.00092225138883273697
sg384
F0.001349632890731521
sg385
F0.0011427843065033186
sg386
F0.0012803824526783046
sg387
F0.0014501761439747012
sg388
F0.0011161238628337245
sg389
F0.0011206821375172055
sg390
F0.0013287321986420314
sg391
F0.00083723966611669938
sg392
F0.00078100043876628623
sg393
F0.0010798068718691238
sg394
F0.0011595657347643247
sg395
F0.0012442346943333138
sg396
F0.00093398010791557041
sg397
F0.00092987910740615558
sg398
F0.0011367173304981572
sg399
F0.0010123496530610291
sg400
F0.0013022096602715607
sg401
F0.0010744737749610828
sg402
F0.0010109472276911297
sg403
F0.00083811802512411644
sg404
F0.0012867898990877498
sg405
F0.0013152210548639871
sg406
F0.0013998026404510662
sg407
F0.0014151844769752938
sg408
F0.0010720616252782131
sg409
F0.0010805418177331559
sg410
F0.0012174337550936041
sg411
F0.0010527730778860142
sg412
F0.0010176796296321386
sg413
F0.001181462538440876
sg414
F0.00093726461448362581
sg415
F0.00094764365535023954
sg416
F0.0011470228454603481
sg417
F0.0011742631493878674
sg418
F0.0013210488935239638
sg419
F0.0008796598066962754
sg420
F0.00079797676059264805
sg421
F0.0010609143528643422
sg422
F0.0013415655247443004
sg423
F0.00095944879270571672
sg424
F0.001477448129611865
sg425
F0.00084763552432634353
sg426
F0.0012699811393807215
sg427
F0.0012097861235264864
sg428
F0.0015304834231301817
sg429
F0.001307480608219243
sg430
F0.00076820188805689683
sg431
F0.0014988460963389451
sg432
F0.0014186343663888685
sg433
F0.0014115536066517935
sg434
F0.00098292205244814783
sg435
F0.0010929193116555758
sg436
F0.0015094888034582175
sg437
F0.0012430635045666035
sg438
F0.0011247036661778057
sg439
F0.00080113738020569575
sg440
F0.00096167647849187911
sg441
F0.001109161055236348
sg442
F0.00085910221648325422
sg443
F0.00090498299701554524
sg444
F0.00091166320672111153
sg445
F0.0014195327666780212
sg446
F0.0010950574822807192
sg447
F0.0012405649557208659
sg448
F0.0011353414347371347
sg449
F0.00081218009144565098
sg450
F0.0013738457605496344
sg451
F0.0011041860839362408
sg452
F0.001278728182945725
sg453
F0.00082660749865688915
sg454
F0.0011326742607086948
sg455
F0.0012508804705389414
sg456
F0.0011445302289702542
sg457
F0.0015265153304146396
sg458
F0.0012088657214993472
sg459
F0.00077679191865126583
sg460
F0.0015193572543224694
sg461
F0.00097618096504200279
sg462
F0.0013282860620149166
sg463
F0.0014806390218206932
sg464
F0.00083527160253372447
sg465
F0.0011872873685044355
sg466
F0.00099391453534910623
sg467
F0.00079806312066462934
sg468
F0.0013473987660935212
sg469
F0.0015284416631532697
sg470
F0.00083922397806884862
sg471
F0.0010740109272875174
sg472
F0.0014109177645860701
sg473
F0.0014397249157899813
sg474
F0.0010664750676903363
sg475
F0.0014908104636830401
sg476
F0.0014549222514431395
sg477
F0.0010960931571174983
sg478
F0.0010918525174614434
sg479
F0.0012774861426622128
sg480
F0.0013390136156273583
sg481
F0.0014806957519379433
sg482
F0.00082650391285954135
sg483
F0.00089146586861286938
sg484
F0.00093217688508240792
sg485
F0.00077558280577254973
sg486
F0.00081198008513426825
sg487
F0.00090839312177127673
sg488
F0.00083618948029307884
sg489
F0.00082396493052019795
sg490
F0.00088123219603887981
sg491
F0.00119657839911438
sg492
F0.0011526504963232855
sg493
F0.00091297492455602212
sg494
F0.00096165946898008493
sg495
F0.0012909240522479379
sg496
F0.0011022906938577418
sg497
F0.00093684043087138185
sg498
F0.0011125465372569415
sg499
F0.00078530176095390793
sg500
F0.0010615797363839456
sg501
F0.00078978101367312582
sg502
F0.0014717180327669449
sg503
F0.0014886054137190413
sg504
F0.0014617850313859587
sg505
F0.0014906341307767015
sg506
F0.00152467518097622
sg507
F0.0012621526699846206
sg508
F0.0013371524152657943
sg509
F0.00080514123097794336
sg510
F0.0010502019433726399
sg511
F0.0010468129778290769
sg512
F0.00083710597482553896
sg513
F0.0011678145849720236
sg514
F0.0014164817861458824
sg515
F0.0014228193035175651
sg516
F0.0010813155630578504
sg517
F0.0011197363461609823
sg518
F0.0010834699945792574
sg519
F0.00093790719840089302
sg520
F0.0010895767482699975
sg521
F0.00085250702139218085
sg522
F0.0014757454472794764
sg523
F0.00079170983212535271
sg524
F0.0012580283438394014
sg525
F0.0010612802598217728
sg526
F0.00098618879192106717
sg527
F0.0010107415819476952
sg528
F0.00096055701994870264
sg529
F0.00091841884810320231
sg530
F0.0013689380933934474
sg531
F0.0012148511888848219
sg532
F0.0010533874401138074
sg533
F0.0013488493473795386
sg534
F0.0013520206572873101
sg535
F0.0015183669935816008
sg536
F0.00095866674679577371
sg537
F0.00087690014823605181
sg538
F0.0013587236564808439
sg539
F0.0013582707273017112
sg540
F0.0013126704249778322
sg541
F0.0012602183564557271
sg542
F0.00091544747694672691
sg543
F0.0010284399332504935
sg544
F0.0012567731825194447
sg545
F0.0014373231516464399
sg546
F0.00090053618515538393
sg547
F0.0012240435221092597
sg548
F0.0014465680664121805
sg549
F0.00095230646429391038
sg550
F0.0011056046251479506
sg551
F0.00098942546813102304
sg552
F0.0010785307115979187
sg553
F0.0015051010139607683
sg554
F0.001167169034632814
sg555
F0.0014683864704480678
sg556
F0.0010918945373082814
sg557
F0.0010490201290227791
sg558
F0.0014645150373315569
sg559
F0.00084927912154355635
sg560
F0.0011551357061092564
sg561
F0.001175050124770048
sg562
F0.00090818012143393872
sg563
F0.0013359306383187919
sg564
F0.0010453816469159034
sg565
F0.0010962605308801852
sg566
F0.0013200501789410867
sg567
F0.0011070714013561302
sg568
F0.0013138303621530107
sg569
F0.0013838508826846737
sg570
F0.0013727138745056576
sg571
F0.0010127868588251166
sg572
F0.00097640266093437453
sg573
F0.0013074077481351012
sg574
F0.00084104718063340931
sg575
F0.0014640191292304391
sg576
F0.0010086310224086874
sg577
F0.0013606052158394893
sg578
F0.00083468016655234545
sg579
F0.0012063965120455737
sg580
F0.0010611929876814196
sg581
F0.00079030346498203661
sg582
F0.0014546604688542943
sg583
F0.00087272423217986275
sg584
F0.00080134767400810074
sg585
F0.00097784972163020051
sg586
F0.0011589190727276568
sg587
F0.0012723621258051165
sg588
F0.0011807588905472963
sg589
F0.0013986723561919729
sg590
F0.0011782917163965891
sg591
F0.0013436842037306952
sg592
F0.0009559870005909465
sg593
F0.00099935464565139328
sg594
F0.00099406268502596107
sg595
F0.00085592183721506338
sg596
F0.0013361501636916183
sg597
F0.00097177018914667982
sg598
F0.0013855891099300744
sg599
F0.00083941158133013104
sg600
F0.00078198945879103118
sg601
F0.0013263996552416756
sg602
F0.0012207182977539278
sg603
F0.001481703745267914
sg604
F0.00084300546952821771
sg605
F0.00084996839923367931
sg606
F0.001123856968027963
sg607
F0.00097759752575929545
sg608
F0.0010571281677262383
sg609
F0.001338375059249274
sg610
F0.0013701556851553481
sg611
F0.0011421265503238685
sg612
F0.00083884301654587798
sg613
F0.0012423798660810626
sg614
F0.0014784356237486794
sg615
F0.00091321426633308078
sg616
F0.0013784288853929626
sg617
F0.0013517330141666773
sg618
F0.0012765372701897719
sg619
F0.001308002047345628
sg620
F0.00077542827726093241
sg621
F0.0010589060197421143
sg622
F0.0013574516542291561
sg623
F0.00077799962385356931
sg624
F0.00086936093684678484
sg625
F0.0014165794268142676
sg626
F0.0012283289970609396
sg627
F0.00077908020676394248
sg628
F0.00083429810748591928
sg629
F0.0014241152066989315
sg630
F0.00082388387915495812
sg631
F0.0012015555998737494
sg632
F0.00093830793455463093
sg633
F0.00089761329197324139
sg634
F0.001187271225070277
sg635
F0.0013836205101785042
sg636
F0.0013215761437167259
sg637
F0.0010593216573419652
sg638
F0.0013153021756226921
sg639
F0.00084842134845153306
sg640
F0.00110257225141137
sg641
F0.0013297823461775964
sg642
F0.0012449022420906669
sg643
F0.0012473103407904219
sg644
F0.0013255287380567152
sg645
F0.00096994976837383473
sg646
F0.00098254623347458726
sg647
F0.001171663346882461
sg648
F0.0014808320401867559
sg649
F0.0010260624547651061
sg650
F0.0015268842496006865
sg651
F0.00096265159540866554
sg652
F0.0008082077353271707
sg653
F0.00082250013464466401
sg654
F0.0011204211165412401
sg655
F0.00097088123975798651
sg656
F0.0012182218127848102
sg657
F0.0011471916615198635
sg658
F0.00091698785573458169
sg659
F0.0014682742665297318
sg660
F0.0014818964567371268
sg661
F0.0014421357863298357
sg662
F0.0007752560810902235
sg663
F0.0008691241416487616
sg664
F0.00098801239322953414
sg665
F0.001333160558190703
sg666
F0.00095499875182153816
sg667
F0.0013771779288196044
sg668
F0.0012677210957974495
sg669
F0.00085156303058645671
sg670
F0.0015049862508837637
sg671
F0.00085878802909744513
sg672
F0.00097906488886505987
sg673
F0.00094666119399103917
sg674
F0.0013699930995807231
sg675
F0.0011911363217965547
sg676
F0.00089014008756567453
sg677
F0.0014633285039121714
sg678
F0.0014743326854319994
sg679
F0.0010229940512497776
sg680
F0.0011263536794748666
sg681
F0.0013673774915494961
sg682
F0.001460482443437245
sg683
F0.00078631017646366012
sg684
F0.00094189539484381877
sg685
F0.00084136492998045705
sg686
F0.00088322392977232145
sg687
F0.0010428384001301403
sg688
F0.001290483774034835
sg689
F0.00080767254352641436
sg690
F0.0014435482922551918
sg691
F0.0010893009033142327
sg692
F0.0015128230278870947
sg693
F0.00093807024683400988
sg694
F0.0013851461809686256
sg695
F0.0013028323233113712
sg696
F0.00089436081241405451
sg697
F0.0015055958827536258
sg698
F0.0013116579764678848
sg699
F0.00095365761313001291
sg700
F0.0010880188236244567
sg701
F0.00084328438676818695
sg702
F0.0011056279380355658
sg703
F0.0011353490015835815
sg704
F0.0013662103959734546
sg705
F0.0011568526338616846
sg706
F0.0014394115239985471
sg707
F0.0012323276006519636
sg708
F0.00096518211684857495
sg709
F0.00086387811073337169
sg710
F0.0012902136394293824
sg711
F0.0013537595074038782
sg712
F0.0013315800043426397
sg713
F0.0015098736387131361
sg714
F0.0011301046490387013
sg715
F0.0012648179888844163
sg716
F0.00088772553345877196
sg717
F0.00098202029992834681
sg718
F0.001090442141713542
sg719
F0.0013209438056355697
sg720
F0.0010290669384618628
sg721
F0.00086444071401520239
sg722
F0.00086563094813105982
sg723
F0.0014696161362982407
sg724
F0.0011226619059169977
sg725
F0.0010671817131269387
sg726
F0.0014268712177445638
sg727
F0.00079516955017093992
sg728
F0.0010346992421302178
sg729
F0.00077243618729929081
sg730
F0.001184509874911865
sg731
F0.00096320400436746814
sg732
F0.0013655566770382748
sg733
F0.0013471420191368624
sg734
F0.0013364025820758743
sg735
F0.00085006226925255749
sg736
F0.0012784567254942962
sg737
F0.0013756770688538966
sg738
F0.00093531738553464942
sg739
F0.0012307475756690675
sg740
F0.00081257688289988956
sg741
F0.0012332124037272745
sg742
F0.00085996117880418979
sg743
F0.0014238052908277737
sg744
F0.0012107233490452312
sg745
F0.00082164626071957005
sg746
F0.0012842052245608524
sg747
F0.00090159185466782315
sg748
F0.00093571997595415452
sg749
F0.0010965215281993675
sg750
F0.0011229297796449258
sg751
F0.0010607265827896689
sg752
F0.0010883765058958635
sg753
F0.0010222426342588128
sg754
F0.00079287215117575336
sg755
F0.00090109176719079225
sg756
F0.001334093993117419
sg757
F0.0014194800706571452
sg758
F0.0010282872745683038
sg759
F0.0011155664646186286
sg760
F0.0014136702815003175
sg761
F0.0010745676835760974
sg762
F0.00093610560098603374
sg763
F0.0015311372969619051
sg764
F0.0013551848773281179
sg765
F0.0010491527728336049
sg766
F0.0015250719472929847
sg767
F0.0010886440608047936
sg768
F0.0013233031718583176
sg769
F0.0011759647969006107
sg770
F0.0010347009805951788
sg771
F0.0011313487935049971
sg772
F0.0013294203893229918
sg773
F0.00099028284990335439
sg774
F0.0010891800048796654
sg775
F0.00094604969101000401
sg776
F0.0013864944740859561
sg777
F0.0008095015982811384
sg778
F0.0014382924945898501
sg779
F0.0012750813001154858
sg780
F0.0010858444439845829
sg781
F0.0011601429138412781
sg782
F0.001143996503080515
sg783
F0.001333667739719433
sg784
F0.001005910127715972
sg785
F0.0012100426068712932
sg786
F0.0013526843482677166
sg787
F0.0014091910885071816
sg788
F0.00082957469940805927
sg789
F0.0014021773947315373
sg790
F0.001024858599119339
sg791
F0.0014432958638665768
sg792
F0.001047484420786803
sg793
F0.0014927352643672024
sg794
F0.00077975014680540004
sg795
F0.00098699092407526908
sg796
F0.0012741027836074049
sg797
F0.00091643438142197825
sg798
F0.00077542070708311404
sg799
F0.00092736677326564596
sg800
F0.001248209270953104
sg801
F0.0010707742496572949
sg802
F0.0015245411001392594
sg803
F0.0008780789511748764
sg804
F0.0010763857672055274
sg805
F0.0010242716437882213
sg806
F0.00097871241920300181
sg807
F0.0012223910111328823
sg808
F0.00077245912541659689
sg809
F0.0014120596237236327
sg810
F0.0013084513711760322
sg811
F0.0014174429545035271
sg812
F0.00085711027878122826
sg813
F0.0011846731605123467
sg814
F0.001052278385703379
sg815
F0.0011939090505357134
sg816
F0.001309319821753757
sg817
F0.0011795425864542751
sg818
F0.0013211294382622623
sg819
F0.00097803686028422043
sg820
F0.0013869045093436196
sg821
F0.0012341615338902828
sg822
F0.0013423605853117647
sg823
F0.0013134193919142982
sg824
F0.00097086341457620798
sg825
F0.0010965652142975312
sg826
F0.00098477985008341021
sg827
F0.0013926769118364005
sg828
F0.0011906383608767488
sg829
F0.00083191246793042008
sg830
F0.0010340701301141302
sg831
F0.00085173445938844649
sg832
F0.0010417238412272307
sg833
F0.00097808972977043171
sg834
F0.00094733022644415143
sg835
F0.00085327099709880017
sg836
F0.00081739448253153376
sg837
F0.00094141603565504851
sg838
F0.0013069327695879112
sg839
F0.0013209431980920378
sg840
F0.0014011562662344338
sg841
F0.00089648111615537956
sg842
F0.0013488099383692324
sg843
F0.00088419125757897724
sg844
F0.00080576707819997458
sg845
F0.00083806233396782734
sg846
F0.0011814499073302303
sg847
F0.00093384252677543821
sg848
F0.001489101302972332
sg849
F0.00092601924330873052
sg850
F0.00080140828980747303
sg851
F0.0012602385294000614
sg852
F0.0015281215522535065
sg853
F0.0014701591847610276
sg854
F0.0012959794153924765
sg855
F0.0014665905528971422
sg856
F0.0011365262728615191
sg857
F0.00084188447235688439
sg858
F0.0012081296431494992
sg859
F0.0012350860427550153
sg860
F0.00086052368017101627
sg861
F0.0011832110225283715
sg862
F0.00087228291219242429
sg863
F0.00082785627883625007
sg864
F0.0014196851441945378
sg865
F0.00083969955674005354
sg866
F0.00087750175839048045
sg867
F0.00095035510218037013
sg868
F0.0011102886791558699
sg869
F0.0010728187612886527
sg870
F0.0014355273821487883
sg871
F0.0009372467632592481
sg872
F0.0014059791099518446
sg873
F0.0011328882278285441
sg874
F0.0012949133860005264
sg875
F0.00083365769145972457
sg876
F0.0010978164454214104
sg877
F0.0008585507449882212
sg878
F0.00080801579258939248
sg879
F0.0010699095269838818
sg880
F0.00081628075720440786
sg881
F0.001071265500911589
sg882
F0.00090143818731087499
ss.